; Function Attrs: mustprogress uwtable
define void @_ZN29RadianceScalingRendererPlugin14initActionListEv(ptr noundef nonnull align 8 dereferenceable(128) %0) local_unnamed_addr #9 align 2 personality ptr @__gxx_personality_v0 {
  %2 = alloca ptr, align 8
  %3 = alloca %class.QString, align 8
  %4 = getelementptr inbounds i8, ptr %0, i64 32
  %5 = tail call noalias noundef nonnull dereferenceable(16) ptr @_Znwm(i64 noundef 16) #20
  %6 = invoke noundef ptr @_ZN7QString16fromAscii_helperEPKci(ptr noundef nonnull @.str.14, i32 noundef 16)
          to label %7 unwind label %.thread

7:                                                ; preds = %1
  store ptr %6, ptr %3, align 8
  invoke void @_ZN7QActionC1ERK7QStringP7QObject(ptr noundef nonnull align 8 dereferenceable(16) %5, ptr noundef nonnull align 8 dereferenceable(8) %3, ptr noundef nonnull %0)
          to label %9 unwind label %.thread10

.thread10:                                        ; preds = %7
  %8 = landingpad { ptr, i32 }
          cleanup
  call void @_ZN7QStringD2Ev(ptr noundef nonnull align 8 dereferenceable(8) %3) #17
  br label %17

9:                                                ; preds = %7
  store ptr %5, ptr %2, align 8
  invoke void @_ZN5QListIP7QActionE6appendERKS1_(ptr noundef nonnull align 8 dereferenceable(8) %4, ptr noundef nonnull align 8 dereferenceable(8) %2)
          to label %_ZN5QListIP7QActionElsERKS1_.exit unwind label %15

_ZN5QListIP7QActionElsERKS1_.exit:                ; preds = %9
  %10 = load ptr, ptr %3, align 8
  %11 = load atomic i32, ptr %10 monotonic, align 4
  switch i32 %11, label %_ZN9QtPrivate8RefCount5derefEv.exit.i [
    i32 0, label %_ZN9QtPrivate8RefCount5derefEv.exit.thread2.i
    i32 -1, label %_ZN7QStringD2Ev.exit
  ]

_ZN9QtPrivate8RefCount5derefEv.exit.i:            ; preds = %_ZN5QListIP7QActionElsERKS1_.exit
  %12 = atomicrmw sub ptr %10, i32 1 seq_cst, align 4
  %.not.i = icmp eq i32 %12, 1
  br i1 %.not.i, label %_ZN9QtPrivate8RefCount5derefEv.exit._ZN9QtPrivate8RefCount5derefEv.exit.thread2_crit_edge.i, label %_ZN7QStringD2Ev.exit

_ZN9QtPrivate8RefCount5derefEv.exit._ZN9QtPrivate8RefCount5derefEv.exit.thread2_crit_edge.i: ; preds = %_ZN9QtPrivate8RefCount5derefEv.exit.i
  %.pre.i = load ptr, ptr %3, align 8
  br label %_ZN9QtPrivate8RefCount5derefEv.exit.thread2.i

_ZN9QtPrivate8RefCount5derefEv.exit.thread2.i:    ; preds = %_ZN9QtPrivate8RefCount5derefEv.exit._ZN9QtPrivate8RefCount5derefEv.exit.thread2_crit_edge.i, %_ZN5QListIP7QActionElsERKS1_.exit
  %13 = phi ptr [ %.pre.i, %_ZN9QtPrivate8RefCount5derefEv.exit._ZN9QtPrivate8RefCount5derefEv.exit.thread2_crit_edge.i ], [ %10, %_ZN5QListIP7QActionElsERKS1_.exit ]
  call void @_ZN10QArrayData10deallocateEPS_mm(ptr noundef %13, i64 noundef 2, i64 noundef 8) #17
  br label %_ZN7QStringD2Ev.exit

_ZN7QStringD2Ev.exit:                             ; preds = %_ZN5QListIP7QActionElsERKS1_.exit, %_ZN9QtPrivate8RefCount5derefEv.exit.i, %_ZN9QtPrivate8RefCount5derefEv.exit.thread2.i
  ret void

.thread:                                          ; preds = %1
  %14 = landingpad { ptr, i32 }
          cleanup
  br label %17

15:                                               ; preds = %9
  %16 = landingpad { ptr, i32 }
          cleanup
  call void @_ZN7QStringD2Ev(ptr noundef nonnull align 8 dereferenceable(8) %3) #17
  br label %18

17:                                               ; preds = %.thread10, %.thread
  %.pn9 = phi { ptr, i32 } [ %14, %.thread ], [ %8, %.thread10 ]
  call void @_ZdlPv(ptr noundef nonnull %5) #16
  br label %18

18:                                               ; preds = %15, %17
  %.pn8 = phi { ptr, i32 } [ %16, %15 ], [ %.pn9, %17 ]
  resume { ptr, i32 } %.pn8
}